target datalayout = "e-m:e-p270:32:32-p271:32:32-p272:64:64-i64:64-i128:128-f80:128-n8:16:32:64-S128"
target triple = "x86_64-pc-linux-gnu"

%struct.DecoderPriv = type { %struct.Decoder, ptr, ptr, ptr, ptr, %struct.AVRational, %struct.AVRational, i32, i32, i32, i32, i32, i32, i64, i64, %struct.AVRational, i64, i32, [2 x ptr], ptr, ptr, i32, i32, ptr, [32 x i8], ptr, i32, ptr, i32, ptr, i32, %struct.anon }
%struct.Decoder = type { ptr, i32, ptr, i32, i64, i64, i64 }
%struct.AVRational = type { i32, i32 }
%struct.anon = type { ptr, ptr }
%struct.AVChannelLayout = type { i32, i32, %union.anon.1, ptr }
%union.anon.1 = type { i64 }
%struct.AVFrame = type { [8 x ptr], [8 x i32], ptr, i32, i32, i32, i32, i32, %struct.AVRational, i64, i64, %struct.AVRational, i32, ptr, i32, i32, [8 x ptr], ptr, i32, ptr, i32, i32, i32, i32, i32, i32, i32, i64, ptr, i32, ptr, ptr, i64, i64, i64, i64, ptr, %struct.AVChannelLayout, i64 }
%struct.AVBufferRef = type { ptr, ptr, i64 }
%struct.AVSubtitle = type { i16, i32, i32, i32, ptr, i64 }

@.str.36 = private unnamed_addr constant [43 x i8] c"Subtitle duration reduced from %d to %d%s\0A\00", align 1
@.str.37 = private unnamed_addr constant [14 x i8] c", dropping it\00", align 1
@.str.38 = private unnamed_addr constant [1 x i8] zeroinitializer, align 1

; Function Attrs: nounwind uwtable
define internal i32 @process_subtitle(ptr noundef %0, ptr noundef %1) #0 {
  %3 = alloca i32, align 4
  %4 = alloca ptr, align 8
  %5 = alloca ptr, align 8
  %6 = alloca ptr, align 8
  %7 = alloca i32, align 4
  %8 = alloca ptr, align 8
  %9 = alloca i32, align 4
  %10 = alloca ptr, align 8
  %11 = alloca i32, align 4
  store ptr %0, ptr %4, align 8, !tbaa !12
  store ptr %1, ptr %5, align 8, !tbaa !57
  call void @llvm.lifetime.start.p0(i64 8, ptr %6) #11
  %12 = load ptr, ptr %5, align 8, !tbaa !57
  %13 = getelementptr inbounds nuw %struct.AVFrame, ptr %12, i32 0, i32 16
  %14 = getelementptr inbounds [8 x ptr], ptr %13, i64 0, i64 0
  %15 = load ptr, ptr %14, align 8, !tbaa !249
  %16 = getelementptr inbounds nuw %struct.AVBufferRef, ptr %15, i32 0, i32 1
  %17 = load ptr, ptr %16, align 8, !tbaa !213
  store ptr %17, ptr %6, align 8, !tbaa !250
  call void @llvm.lifetime.start.p0(i64 4, ptr %7) #11
  store i32 0, ptr %7, align 4, !tbaa !14
  %18 = load ptr, ptr %4, align 8, !tbaa !12
  %19 = getelementptr inbounds nuw %struct.DecoderPriv, ptr %18, i32 0, i32 7
  %20 = load i32, ptr %19, align 8, !tbaa !75
  %21 = and i32 %20, 1
  %22 = icmp ne i32 %21, 0
  br i1 %22, label %23, label %129

23:                                               ; preds = %2
  call void @llvm.lifetime.start.p0(i64 8, ptr %8) #11
  %24 = load ptr, ptr %4, align 8, !tbaa !12
  %25 = getelementptr inbounds nuw %struct.DecoderPriv, ptr %24, i32 0, i32 18
  %26 = getelementptr inbounds [2 x ptr], ptr %25, i64 0, i64 0
  %27 = load ptr, ptr %26, align 8, !tbaa !57
  %28 = getelementptr inbounds nuw %struct.AVFrame, ptr %27, i32 0, i32 16
  %29 = getelementptr inbounds [8 x ptr], ptr %28, i64 0, i64 0
  %30 = load ptr, ptr %29, align 8, !tbaa !249
  %31 = icmp ne ptr %30, null
  br i1 %31, label %32, label %42

32:                                               ; preds = %23
  %33 = load ptr, ptr %4, align 8, !tbaa !12
  %34 = getelementptr inbounds nuw %struct.DecoderPriv, ptr %33, i32 0, i32 18
  %35 = getelementptr inbounds [2 x ptr], ptr %34, i64 0, i64 0
  %36 = load ptr, ptr %35, align 8, !tbaa !57
  %37 = getelementptr inbounds nuw %struct.AVFrame, ptr %36, i32 0, i32 16
  %38 = getelementptr inbounds [8 x ptr], ptr %37, i64 0, i64 0
  %39 = load ptr, ptr %38, align 8, !tbaa !249
  %40 = getelementptr inbounds nuw %struct.AVBufferRef, ptr %39, i32 0, i32 1
  %41 = load ptr, ptr %40, align 8, !tbaa !213
  br label %43

42:                                               ; preds = %23
  br label %43

43:                                               ; preds = %42, %32
  %44 = phi ptr [ %41, %32 ], [ null, %42 ]
  store ptr %44, ptr %8, align 8, !tbaa !250
  call void @llvm.lifetime.start.p0(i64 4, ptr %9) #11
  store i32 1, ptr %9, align 4, !tbaa !14
  %45 = load ptr, ptr %8, align 8, !tbaa !250
  %46 = icmp ne ptr %45, null
  br i1 %46, label %47, label %75

47:                                               ; preds = %43
  %48 = load ptr, ptr %6, align 8, !tbaa !250
  %49 = getelementptr inbounds nuw %struct.AVSubtitle, ptr %48, i32 0, i32 5
  %50 = load i64, ptr %49, align 8, !tbaa !256
  %51 = load ptr, ptr %8, align 8, !tbaa !250
  %52 = getelementptr inbounds nuw %struct.AVSubtitle, ptr %51, i32 0, i32 5
  %53 = load i64, ptr %52, align 8, !tbaa !256
  %54 = sub nsw i64 %50, %53
  %55 = call i64 @av_rescale(i64 noundef %54, i64 noundef 1000, i64 noundef 1000000) #13
  %56 = trunc i64 %55 to i32
  store i32 %56, ptr %9, align 4, !tbaa !14
  %57 = load i32, ptr %9, align 4, !tbaa !14
  %58 = load ptr, ptr %8, align 8, !tbaa !250
  %59 = getelementptr inbounds nuw %struct.AVSubtitle, ptr %58, i32 0, i32 2
  %60 = load i32, ptr %59, align 8, !tbaa !257
  %61 = icmp ult i32 %57, %60
  br i1 %61, label %62, label %74

62:                                               ; preds = %47
  %63 = load ptr, ptr %4, align 8, !tbaa !12
  %64 = load ptr, ptr %8, align 8, !tbaa !250
  %65 = getelementptr inbounds nuw %struct.AVSubtitle, ptr %64, i32 0, i32 2
  %66 = load i32, ptr %65, align 8, !tbaa !257
  %67 = load i32, ptr %9, align 4, !tbaa !14
  %68 = load i32, ptr %9, align 4, !tbaa !14
  %69 = icmp sle i32 %68, 0
  %70 = select i1 %69, ptr @.str.37, ptr @.str.38
  call void (ptr, i32, ptr, ...) @av_log(ptr noundef %63, i32 noundef 48, ptr noundef @.str.36, i32 noundef %66, i32 noundef %67, ptr noundef %70)
  %71 = load i32, ptr %9, align 4, !tbaa !14
  %72 = load ptr, ptr %8, align 8, !tbaa !250
  %73 = getelementptr inbounds nuw %struct.AVSubtitle, ptr %72, i32 0, i32 2
  store i32 %71, ptr %73, align 8, !tbaa !257
  br label %74

74:                                               ; preds = %62, %47
  br label %75

75:                                               ; preds = %74, %43
  %76 = load ptr, ptr %4, align 8, !tbaa !12
  %77 = getelementptr inbounds nuw %struct.DecoderPriv, ptr %76, i32 0, i32 18
  %78 = getelementptr inbounds [2 x ptr], ptr %77, i64 0, i64 1
  %79 = load ptr, ptr %78, align 8, !tbaa !57
  call void @av_frame_unref(ptr noundef %79)
  %80 = load ptr, ptr %4, align 8, !tbaa !12
  %81 = getelementptr inbounds nuw %struct.DecoderPriv, ptr %80, i32 0, i32 18
  %82 = getelementptr inbounds [2 x ptr], ptr %81, i64 0, i64 1
  %83 = load ptr, ptr %82, align 8, !tbaa !57
  %84 = load ptr, ptr %5, align 8, !tbaa !57
  call void @av_frame_move_ref(ptr noundef %83, ptr noundef %84)
  %85 = load ptr, ptr %4, align 8, !tbaa !12
  %86 = getelementptr inbounds nuw %struct.DecoderPriv, ptr %85, i32 0, i32 18
  %87 = getelementptr inbounds [2 x ptr], ptr %86, i64 0, i64 0
  %88 = load ptr, ptr %87, align 8, !tbaa !57
  store ptr %88, ptr %5, align 8, !tbaa !57
  %89 = load ptr, ptr %5, align 8, !tbaa !57
  %90 = getelementptr inbounds nuw %struct.AVFrame, ptr %89, i32 0, i32 16
  %91 = getelementptr inbounds [8 x ptr], ptr %90, i64 0, i64 0
  %92 = load ptr, ptr %91, align 8, !tbaa !249
  %93 = icmp ne ptr %92, null
  br i1 %93, label %94, label %101

94:                                               ; preds = %75
  %95 = load ptr, ptr %5, align 8, !tbaa !57
  %96 = getelementptr inbounds nuw %struct.AVFrame, ptr %95, i32 0, i32 16
  %97 = getelementptr inbounds [8 x ptr], ptr %96, i64 0, i64 0
  %98 = load ptr, ptr %97, align 8, !tbaa !249
  %99 = getelementptr inbounds nuw %struct.AVBufferRef, ptr %98, i32 0, i32 1
  %100 = load ptr, ptr %99, align 8, !tbaa !213
  br label %102

101:                                              ; preds = %75
  br label %102

102:                                              ; preds = %101, %94
  %103 = phi ptr [ %100, %94 ], [ null, %101 ]
  store ptr %103, ptr %6, align 8, !tbaa !250
  br label %104

104:                                              ; preds = %102
  call void @llvm.lifetime.start.p0(i64 8, ptr %10) #11
  %105 = load ptr, ptr %4, align 8, !tbaa !12
  %106 = getelementptr inbounds nuw %struct.DecoderPriv, ptr %105, i32 0, i32 18
  %107 = getelementptr inbounds [2 x ptr], ptr %106, i64 0, i64 1
  %108 = load ptr, ptr %107, align 8, !tbaa !57
  store ptr %108, ptr %10, align 8, !tbaa !57
  %109 = load ptr, ptr %4, align 8, !tbaa !12
  %110 = getelementptr inbounds nuw %struct.DecoderPriv, ptr %109, i32 0, i32 18
  %111 = getelementptr inbounds [2 x ptr], ptr %110, i64 0, i64 0
  %112 = load ptr, ptr %111, align 8, !tbaa !57
  %113 = load ptr, ptr %4, align 8, !tbaa !12
  %114 = getelementptr inbounds nuw %struct.DecoderPriv, ptr %113, i32 0, i32 18
  %115 = getelementptr inbounds [2 x ptr], ptr %114, i64 0, i64 1
  store ptr %112, ptr %115, align 8, !tbaa !57
  %116 = load ptr, ptr %10, align 8, !tbaa !57
  %117 = load ptr, ptr %4, align 8, !tbaa !12
  %118 = getelementptr inbounds nuw %struct.DecoderPriv, ptr %117, i32 0, i32 18
  %119 = getelementptr inbounds [2 x ptr], ptr %118, i64 0, i64 0
  store ptr %116, ptr %119, align 8, !tbaa !57
  call void @llvm.lifetime.end.p0(i64 8, ptr %10) #11
  br label %120

120:                                              ; preds = %104
  br label %121

121:                                              ; preds = %120
  %122 = load i32, ptr %9, align 4, !tbaa !14
  %123 = icmp sle i32 %122, 0
  br i1 %123, label %124, label %125

124:                                              ; preds = %121
  store i32 0, ptr %3, align 4
  store i32 1, ptr %11, align 4
  br label %126

125:                                              ; preds = %121
  store i32 0, ptr %11, align 4
  br label %126

126:                                              ; preds = %125, %124
  call void @llvm.lifetime.end.p0(i64 4, ptr %9) #11
  call void @llvm.lifetime.end.p0(i64 8, ptr %8) #11
  %127 = load i32, ptr %11, align 4
  switch i32 %127, label %154 [
    i32 0, label %128
  ]

128:                                              ; preds = %126
  br label %129

129:                                              ; preds = %128, %2
  %130 = load ptr, ptr %6, align 8, !tbaa !250
  %131 = icmp ne ptr %130, null
  br i1 %131, label %133, label %132

132:                                              ; preds = %129
  store i32 0, ptr %3, align 4
  store i32 1, ptr %11, align 4
  br label %154

133:                                              ; preds = %129
  %134 = load ptr, ptr %4, align 8, !tbaa !12
  %135 = getelementptr inbounds nuw %struct.DecoderPriv, ptr %134, i32 0, i32 20
  %136 = load ptr, ptr %135, align 8, !tbaa !50
  %137 = load ptr, ptr %4, align 8, !tbaa !12
  %138 = getelementptr inbounds nuw %struct.DecoderPriv, ptr %137, i32 0, i32 21
  %139 = load i32, ptr %138, align 8, !tbaa !40
  %140 = load ptr, ptr %5, align 8, !tbaa !57
  %141 = call i32 @sch_dec_send(ptr noundef %136, i32 noundef %139, i32 noundef 0, ptr noundef %140)
  store i32 %141, ptr %7, align 4, !tbaa !14
  %142 = load i32, ptr %7, align 4, !tbaa !14
  %143 = icmp slt i32 %142, 0
  br i1 %143, label %144, label %146

144:                                              ; preds = %133
  %145 = load ptr, ptr %5, align 8, !tbaa !57
  call void @av_frame_unref(ptr noundef %145)
  br label %146

146:                                              ; preds = %144, %133
  %147 = load i32, ptr %7, align 4, !tbaa !14
  %148 = icmp eq i32 %147, -541478725
  br i1 %148, label %149, label %150

149:                                              ; preds = %146
  br label %152

150:                                              ; preds = %146
  %151 = load i32, ptr %7, align 4, !tbaa !14
  br label %152

152:                                              ; preds = %150, %149
  %153 = phi i32 [ -1414092869, %149 ], [ %151, %150 ]
  store i32 %153, ptr %3, align 4
  store i32 1, ptr %11, align 4
  br label %154

154:                                              ; preds = %152, %132, %126
  call void @llvm.lifetime.end.p0(i64 4, ptr %7) #11
  call void @llvm.lifetime.end.p0(i64 8, ptr %6) #11
  %155 = load i32, ptr %3, align 4
  ret i32 %155
}