; Function Attrs: nounwind uwtable
define internal fastcc i32 @process_subtitle(ptr noundef %0, ptr noundef %1) unnamed_addr #0 {
  %3 = getelementptr inbounds nuw i8, ptr %1, i64 184
  %4 = load ptr, ptr %3, align 8, !tbaa !203
  %5 = getelementptr inbounds nuw i8, ptr %4, i64 8
  %6 = load ptr, ptr %5, align 8, !tbaa !189
  %7 = getelementptr inbounds nuw i8, ptr %0, i64 104
  %8 = load i32, ptr %7, align 8, !tbaa !50
  %9 = and i32 %8, 1
  %.not = icmp eq i32 %9, 0
  br i1 %.not, label %45, label %10

10:                                               ; preds = %2
  %11 = getelementptr inbounds nuw i8, ptr %0, i64 168
  %12 = load ptr, ptr %11, align 8, !tbaa !70
  %13 = getelementptr inbounds nuw i8, ptr %12, i64 184
  %14 = load ptr, ptr %13, align 8, !tbaa !203
  %.not46 = icmp eq ptr %14, null
  br i1 %.not46, label %.thread, label %15

15:                                               ; preds = %10
  %16 = getelementptr inbounds nuw i8, ptr %14, i64 8
  %17 = load ptr, ptr %16, align 8, !tbaa !189
  %.not47 = icmp eq ptr %17, null
  br i1 %.not47, label %.thread, label %18

18:                                               ; preds = %15
  %19 = getelementptr inbounds nuw i8, ptr %6, i64 24
  %20 = load i64, ptr %19, align 8, !tbaa !208
  %21 = getelementptr inbounds nuw i8, ptr %17, i64 24
  %22 = load i64, ptr %21, align 8, !tbaa !208
  %23 = sub nsw i64 %20, %22
  %24 = tail call i64 @av_rescale(i64 noundef %23, i64 noundef 1000, i64 noundef 1000000) #14
  %25 = trunc i64 %24 to i32
  %26 = getelementptr inbounds nuw i8, ptr %17, i64 8
  %27 = load i32, ptr %26, align 8, !tbaa !213
  %28 = icmp ugt i32 %27, %25
  br i1 %28, label %29, label %.thread

29:                                               ; preds = %18
  %30 = icmp slt i32 %25, 1
  %31 = select i1 %30, ptr @.str.37, ptr @.str.38
  tail call void (ptr, i32, ptr, ...) @av_log(ptr noundef nonnull %0, i32 noundef 48, ptr noundef nonnull @.str.36, i32 noundef %27, i32 noundef %25, ptr noundef nonnull %31) #13
  store i32 %25, ptr %26, align 8, !tbaa !213
  br label %.thread

.thread:                                          ; preds = %10, %18, %29, %15
  %.037 = phi i32 [ %25, %29 ], [ %25, %18 ], [ 1, %15 ], [ 1, %10 ]
  %32 = getelementptr inbounds nuw i8, ptr %0, i64 176
  %33 = load ptr, ptr %32, align 8, !tbaa !70
  tail call void @av_frame_unref(ptr noundef %33) #13
  %34 = load ptr, ptr %32, align 8, !tbaa !70
  tail call void @av_frame_move_ref(ptr noundef %34, ptr noundef nonnull %1) #13
  %35 = load ptr, ptr %11, align 8, !tbaa !70
  %36 = getelementptr inbounds nuw i8, ptr %35, i64 184
  %37 = load ptr, ptr %36, align 8, !tbaa !203
  %.not48 = icmp eq ptr %37, null
  br i1 %.not48, label %41, label %38

38:                                               ; preds = %.thread
  %39 = getelementptr inbounds nuw i8, ptr %37, i64 8
  %40 = load ptr, ptr %39, align 8, !tbaa !189
  br label %41

41:                                               ; preds = %.thread, %38
  %42 = phi ptr [ %40, %38 ], [ null, %.thread ]
  %43 = load ptr, ptr %32, align 8, !tbaa !70
  store ptr %35, ptr %32, align 8, !tbaa !70
  store ptr %43, ptr %11, align 8, !tbaa !70
  %44 = icmp sgt i32 %.037, 0
  br i1 %44, label %45, label %57

45:                                               ; preds = %41, %2
  %.039 = phi ptr [ %42, %41 ], [ %6, %2 ]
  %.038 = phi ptr [ %35, %41 ], [ %1, %2 ]
  %.not49 = icmp eq ptr %.039, null
  br i1 %.not49, label %57, label %46

46:                                               ; preds = %45
  %47 = getelementptr inbounds nuw i8, ptr %0, i64 192
  %48 = load ptr, ptr %47, align 8, !tbaa !35
  %49 = getelementptr inbounds nuw i8, ptr %0, i64 200
  %50 = load i32, ptr %49, align 8, !tbaa !26
  %51 = tail call i32 @sch_dec_send(ptr noundef %48, i32 noundef %50, i32 noundef 0, ptr noundef nonnull %.038) #13
  %52 = icmp slt i32 %51, 0
  br i1 %52, label %53, label %54

53:                                               ; preds = %46
  tail call void @av_frame_unref(ptr noundef nonnull %.038) #13
  br label %54

54:                                               ; preds = %53, %46
  %55 = icmp eq i32 %51, -541478725
  %56 = select i1 %55, i32 -1414092869, i32 %51
  br label %57

57:                                               ; preds = %45, %41, %54
  %.1 = phi i32 [ %56, %54 ], [ 0, %41 ], [ 0, %45 ]
  ret i32 %.1
}